target datalayout = "e-m:e-p270:32:32-p271:32:32-p272:64:64-i64:64-i128:128-f80:128-n8:16:32:64-S128"
target triple = "x86_64-pc-linux-gnu"

%struct.evp_test_st = type { %struct.stanza_st, ptr, i32, ptr, ptr, ptr, ptr, ptr, ptr, i32 }
%struct.stanza_st = type { ptr, ptr, i32, i32, i32, i32, i32, i32, [150 x %struct.pair_st], ptr, [32768 x i8] }
%struct.pair_st = type { ptr, ptr }
%struct.pkey_data_st = type { ptr, ptr, ptr, ptr, ptr, ptr, i64, ptr, i64, ptr, ptr, ptr, i32 }

@.str.29 = private unnamed_addr constant [27 x i8] c"../openssl/test/evp_test.c\00", align 1
@.str.96 = private unnamed_addr constant [30 x i8] c"got = OPENSSL_malloc(got_len)\00", align 1
@.str.112 = private unnamed_addr constant [4 x i8] c"got\00", align 1
@.str.213 = private unnamed_addr constant [9 x i8] c"expected\00", align 1
@.str.239 = private unnamed_addr constant [8 x i8] c"got_len\00", align 1
@.str.351 = private unnamed_addr constant [2 x i8] c"0\00", align 1
@.str.444 = private unnamed_addr constant [22 x i8] c"DERIVE_SET_PEER_ERROR\00", align 1
@.str.445 = private unnamed_addr constant [39 x i8] c"dctx = EVP_PKEY_CTX_dup(expected->ctx)\00", align 1
@.str.446 = private unnamed_addr constant [13 x i8] c"DERIVE_ERROR\00", align 1
@.str.447 = private unnamed_addr constant [23 x i8] c"SHARED_SECRET_MISMATCH\00", align 1

; Function Attrs: nounwind uwtable
define internal i32 @memory_err_compare(ptr noundef %0, ptr noundef %1, ptr noundef %2, i64 noundef %3, ptr noundef %4, i64 noundef %5) #0 {
  %7 = alloca ptr, align 8
  %8 = alloca ptr, align 8
  %9 = alloca ptr, align 8
  %10 = alloca i64, align 8
  %11 = alloca ptr, align 8
  %12 = alloca i64, align 8
  %13 = alloca i32, align 4
  store ptr %0, ptr %7, align 8, !tbaa !15
  store ptr %1, ptr %8, align 8, !tbaa !4
  store ptr %2, ptr %9, align 8, !tbaa !97
  store i64 %3, ptr %10, align 8, !tbaa !13
  store ptr %4, ptr %11, align 8, !tbaa !97
  store i64 %5, ptr %12, align 8, !tbaa !13
  call void @llvm.lifetime.start.p0(i64 4, ptr %13) #10
  %14 = load ptr, ptr %7, align 8, !tbaa !15
  %15 = getelementptr inbounds nuw %struct.evp_test_st, ptr %14, i32 0, i32 6
  %16 = load ptr, ptr %15, align 8, !tbaa !57
  %17 = icmp ne ptr %16, null
  br i1 %17, label %18, label %34

18:                                               ; preds = %6
  %19 = load ptr, ptr %7, align 8, !tbaa !15
  %20 = getelementptr inbounds nuw %struct.evp_test_st, ptr %19, i32 0, i32 6
  %21 = load ptr, ptr %20, align 8, !tbaa !57
  %22 = load ptr, ptr %8, align 8, !tbaa !4
  %23 = call i32 @strcmp(ptr noundef %21, ptr noundef %22) #11
  %24 = icmp eq i32 %23, 0
  br i1 %24, label %25, label %34

25:                                               ; preds = %18
  %26 = load ptr, ptr %9, align 8, !tbaa !97
  %27 = load i64, ptr %10, align 8, !tbaa !13
  %28 = load ptr, ptr %11, align 8, !tbaa !97
  %29 = load i64, ptr %12, align 8, !tbaa !13
  %30 = call i32 @test_mem_ne(ptr noundef @.str.29, i32 noundef 332, ptr noundef @.str.213, ptr noundef @.str.112, ptr noundef %26, i64 noundef %27, ptr noundef %28, i64 noundef %29)
  %31 = icmp ne i32 %30, 0
  %32 = xor i1 %31, true
  %33 = zext i1 %32 to i32
  store i32 %33, ptr %13, align 4, !tbaa !9
  br label %40

34:                                               ; preds = %18, %6
  %35 = load ptr, ptr %9, align 8, !tbaa !97
  %36 = load i64, ptr %10, align 8, !tbaa !13
  %37 = load ptr, ptr %11, align 8, !tbaa !97
  %38 = load i64, ptr %12, align 8, !tbaa !13
  %39 = call i32 @test_mem_eq(ptr noundef @.str.29, i32 noundef 334, ptr noundef @.str.213, ptr noundef @.str.112, ptr noundef %35, i64 noundef %36, ptr noundef %37, i64 noundef %38)
  store i32 %39, ptr %13, align 4, !tbaa !9
  br label %40

40:                                               ; preds = %34, %25
  %41 = load i32, ptr %13, align 4, !tbaa !9
  %42 = icmp ne i32 %41, 0
  br i1 %42, label %47, label %43

43:                                               ; preds = %40
  %44 = load ptr, ptr %8, align 8, !tbaa !4
  %45 = load ptr, ptr %7, align 8, !tbaa !15
  %46 = getelementptr inbounds nuw %struct.evp_test_st, ptr %45, i32 0, i32 4
  store ptr %44, ptr %46, align 8, !tbaa !63
  br label %47

47:                                               ; preds = %43, %40
  %48 = load i32, ptr %13, align 4, !tbaa !9
  call void @llvm.lifetime.end.p0(i64 4, ptr %13) #10
  ret i32 %48
}

; Function Attrs: nounwind uwtable
define internal i32 @pderive_test_run(ptr noundef %0) #0 {
  %2 = alloca ptr, align 8
  %3 = alloca ptr, align 8
  %4 = alloca ptr, align 8
  %5 = alloca ptr, align 8
  %6 = alloca i64, align 8
  %7 = alloca i32, align 4
  store ptr %0, ptr %2, align 8, !tbaa !15
  call void @llvm.lifetime.start.p0(i64 8, ptr %3) #10
  store ptr null, ptr %3, align 8, !tbaa !229
  call void @llvm.lifetime.start.p0(i64 8, ptr %4) #10
  %8 = load ptr, ptr %2, align 8, !tbaa !15
  %9 = getelementptr inbounds nuw %struct.evp_test_st, ptr %8, i32 0, i32 8
  %10 = load ptr, ptr %9, align 8, !tbaa !66
  store ptr %10, ptr %4, align 8, !tbaa !346
  call void @llvm.lifetime.start.p0(i64 8, ptr %5) #10
  store ptr null, ptr %5, align 8, !tbaa !4
  call void @llvm.lifetime.start.p0(i64 8, ptr %6) #10
  call void @llvm.lifetime.start.p0(i64 4, ptr %7) #10
  store i32 1, ptr %7, align 4, !tbaa !9
  %11 = load ptr, ptr %2, align 8, !tbaa !15
  %12 = call i32 @pkey_test_run_init(ptr noundef %11)
  %13 = icmp ne i32 %12, 0
  br i1 %13, label %15, label %14

14:                                               ; preds = %1
  br label %91

15:                                               ; preds = %1
  %16 = load ptr, ptr %2, align 8, !tbaa !15
  %17 = getelementptr inbounds nuw %struct.evp_test_st, ptr %16, i32 0, i32 4
  store ptr null, ptr %17, align 8, !tbaa !63
  %18 = load ptr, ptr %4, align 8, !tbaa !346
  %19 = getelementptr inbounds nuw %struct.pkey_data_st, ptr %18, i32 0, i32 0
  %20 = load ptr, ptr %19, align 8, !tbaa !354
  %21 = load ptr, ptr %4, align 8, !tbaa !346
  %22 = getelementptr inbounds nuw %struct.pkey_data_st, ptr %21, i32 0, i32 11
  %23 = load ptr, ptr %22, align 8, !tbaa !363
  %24 = load ptr, ptr %4, align 8, !tbaa !346
  %25 = getelementptr inbounds nuw %struct.pkey_data_st, ptr %24, i32 0, i32 12
  %26 = load i32, ptr %25, align 8, !tbaa !362
  %27 = call i32 @EVP_PKEY_derive_set_peer_ex(ptr noundef %20, ptr noundef %23, i32 noundef %26)
  %28 = icmp sle i32 %27, 0
  br i1 %28, label %29, label %32

29:                                               ; preds = %15
  %30 = load ptr, ptr %2, align 8, !tbaa !15
  %31 = getelementptr inbounds nuw %struct.evp_test_st, ptr %30, i32 0, i32 4
  store ptr @.str.444, ptr %31, align 8, !tbaa !63
  br label %91

32:                                               ; preds = %15
  %33 = load ptr, ptr %4, align 8, !tbaa !346
  %34 = getelementptr inbounds nuw %struct.pkey_data_st, ptr %33, i32 0, i32 0
  %35 = load ptr, ptr %34, align 8, !tbaa !354
  %36 = call ptr @EVP_PKEY_CTX_dup(ptr noundef %35)
  store ptr %36, ptr %3, align 8, !tbaa !229
  %37 = call i32 @test_ptr(ptr noundef @.str.29, i32 noundef 2946, ptr noundef @.str.445, ptr noundef %36)
  %38 = icmp ne i32 %37, 0
  br i1 %38, label %42, label %39

39:                                               ; preds = %32
  %40 = load ptr, ptr %2, align 8, !tbaa !15
  %41 = getelementptr inbounds nuw %struct.evp_test_st, ptr %40, i32 0, i32 4
  store ptr @.str.446, ptr %41, align 8, !tbaa !63
  br label %91

42:                                               ; preds = %32
  %43 = load ptr, ptr %3, align 8, !tbaa !229
  %44 = call i32 @EVP_PKEY_derive(ptr noundef %43, ptr noundef null, ptr noundef %6)
  %45 = icmp sle i32 %44, 0
  br i1 %45, label %50, label %46

46:                                               ; preds = %42
  %47 = load i64, ptr %6, align 8, !tbaa !13
  %48 = call i32 @test_size_t_ne(ptr noundef @.str.29, i32 noundef 2952, ptr noundef @.str.239, ptr noundef @.str.351, i64 noundef %47, i64 noundef 0)
  %49 = icmp ne i32 %48, 0
  br i1 %49, label %53, label %50

50:                                               ; preds = %46, %42
  %51 = load ptr, ptr %2, align 8, !tbaa !15
  %52 = getelementptr inbounds nuw %struct.evp_test_st, ptr %51, i32 0, i32 4
  store ptr @.str.446, ptr %52, align 8, !tbaa !63
  br label %91

53:                                               ; preds = %46
  %54 = load i64, ptr %6, align 8, !tbaa !13
  %55 = call noalias ptr @CRYPTO_malloc(i64 noundef %54, ptr noundef @.str.29, i32 noundef 2956)
  store ptr %55, ptr %5, align 8, !tbaa !4
  %56 = call i32 @test_ptr(ptr noundef @.str.29, i32 noundef 2956, ptr noundef @.str.96, ptr noundef %55)
  %57 = icmp ne i32 %56, 0
  br i1 %57, label %61, label %58

58:                                               ; preds = %53
  %59 = load ptr, ptr %2, align 8, !tbaa !15
  %60 = getelementptr inbounds nuw %struct.evp_test_st, ptr %59, i32 0, i32 4
  store ptr @.str.446, ptr %60, align 8, !tbaa !63
  br label %91

61:                                               ; preds = %53
  %62 = load ptr, ptr %3, align 8, !tbaa !229
  %63 = load ptr, ptr %5, align 8, !tbaa !4
  %64 = call i32 @EVP_PKEY_derive(ptr noundef %62, ptr noundef %63, ptr noundef %6)
  %65 = icmp sle i32 %64, 0
  br i1 %65, label %66, label %69

66:                                               ; preds = %61
  %67 = load ptr, ptr %2, align 8, !tbaa !15
  %68 = getelementptr inbounds nuw %struct.evp_test_st, ptr %67, i32 0, i32 4
  store ptr @.str.446, ptr %68, align 8, !tbaa !63
  br label %91

69:                                               ; preds = %61
  %70 = load ptr, ptr %2, align 8, !tbaa !15
  %71 = load ptr, ptr %4, align 8, !tbaa !346
  %72 = getelementptr inbounds nuw %struct.pkey_data_st, ptr %71, i32 0, i32 7
  %73 = load ptr, ptr %72, align 8, !tbaa !353
  %74 = load ptr, ptr %4, align 8, !tbaa !346
  %75 = getelementptr inbounds nuw %struct.pkey_data_st, ptr %74, i32 0, i32 8
  %76 = load i64, ptr %75, align 8, !tbaa !358
  %77 = load ptr, ptr %5, align 8, !tbaa !4
  %78 = load i64, ptr %6, align 8, !tbaa !13
  %79 = call i32 @memory_err_compare(ptr noundef %70, ptr noundef @.str.447, ptr noundef %73, i64 noundef %76, ptr noundef %77, i64 noundef %78)
  %80 = icmp ne i32 %79, 0
  br i1 %80, label %82, label %81

81:                                               ; preds = %69
  br label %91

82:                                               ; preds = %69
  %83 = load ptr, ptr %3, align 8, !tbaa !229
  %84 = load ptr, ptr %2, align 8, !tbaa !15
  %85 = call i32 @pkey_check_fips_approved(ptr noundef %83, ptr noundef %84)
  %86 = icmp ne i32 %85, 0
  br i1 %86, label %88, label %87

87:                                               ; preds = %82
  store i32 0, ptr %7, align 4, !tbaa !9
  br label %91

88:                                               ; preds = %82
  %89 = load ptr, ptr %2, align 8, !tbaa !15
  %90 = getelementptr inbounds nuw %struct.evp_test_st, ptr %89, i32 0, i32 4
  store ptr null, ptr %90, align 8, !tbaa !63
  br label %91

91:                                               ; preds = %88, %87, %81, %66, %58, %50, %39, %29, %14
  %92 = load ptr, ptr %5, align 8, !tbaa !4
  call void @CRYPTO_free(ptr noundef %92, ptr noundef @.str.29, i32 noundef 2975)
  %93 = load ptr, ptr %3, align 8, !tbaa !229
  call void @EVP_PKEY_CTX_free(ptr noundef %93)
  %94 = load i32, ptr %7, align 4, !tbaa !9
  call void @llvm.lifetime.end.p0(i64 4, ptr %7) #10
  call void @llvm.lifetime.end.p0(i64 8, ptr %6) #10
  call void @llvm.lifetime.end.p0(i64 8, ptr %5) #10
  call void @llvm.lifetime.end.p0(i64 8, ptr %4) #10
  call void @llvm.lifetime.end.p0(i64 8, ptr %3) #10
  ret i32 %94
}