; Function Attrs: nounwind uwtable
define internal range(i32 0, 2) i32 @pderive_test_run(ptr noundef captures(none) %0) #1 {
  %2 = alloca i64, align 8
  %3 = getelementptr inbounds nuw i8, ptr %0, i64 35272
  %4 = load ptr, ptr %3, align 8, !tbaa !20
  call void @llvm.lifetime.start.p0(i64 8, ptr nonnull %2) #10
  %5 = tail call fastcc i32 @pkey_test_run_init(ptr noundef %0)
  %.not = icmp eq i32 %5, 0
  br i1 %.not, label %49, label %6

6:                                                ; preds = %1
  %7 = getelementptr inbounds nuw i8, ptr %0, i64 35240
  store ptr null, ptr %7, align 8, !tbaa !64
  %8 = load ptr, ptr %4, align 8, !tbaa !292
  %9 = getelementptr inbounds nuw i8, ptr %4, i64 88
  %10 = load ptr, ptr %9, align 8, !tbaa !299
  %11 = getelementptr inbounds nuw i8, ptr %4, i64 96
  %12 = load i32, ptr %11, align 8, !tbaa !298
  %13 = tail call i32 @EVP_PKEY_derive_set_peer_ex(ptr noundef %8, ptr noundef %10, i32 noundef %12) #10
  %14 = icmp slt i32 %13, 1
  br i1 %14, label %.sink.split, label %15

15:                                               ; preds = %6
  %16 = load ptr, ptr %4, align 8, !tbaa !292
  %17 = tail call ptr @EVP_PKEY_CTX_dup(ptr noundef %16) #10
  %18 = tail call i32 @test_ptr(ptr noundef nonnull @.str.29, i32 noundef 2946, ptr noundef nonnull @.str.445, ptr noundef %17) #10
  %.not26 = icmp eq i32 %18, 0
  br i1 %.not26, label %.sink.split, label %19

19:                                               ; preds = %15
  %20 = call i32 @EVP_PKEY_derive(ptr noundef %17, ptr noundef null, ptr noundef nonnull %2) #10
  %21 = icmp slt i32 %20, 1
  br i1 %21, label %.sink.split, label %22

22:                                               ; preds = %19
  %23 = load i64, ptr %2, align 8, !tbaa !35
  %24 = call i32 @test_size_t_ne(ptr noundef nonnull @.str.29, i32 noundef 2952, ptr noundef nonnull @.str.239, ptr noundef nonnull @.str.351, i64 noundef %23, i64 noundef 0) #10
  %.not27 = icmp eq i32 %24, 0
  br i1 %.not27, label %.sink.split, label %25

25:                                               ; preds = %22
  %26 = load i64, ptr %2, align 8, !tbaa !35
  %27 = call noalias ptr @CRYPTO_malloc(i64 noundef %26, ptr noundef nonnull @.str.29, i32 noundef 2956) #10
  %28 = call i32 @test_ptr(ptr noundef nonnull @.str.29, i32 noundef 2956, ptr noundef nonnull @.str.96, ptr noundef %27) #10
  %.not28 = icmp eq i32 %28, 0
  br i1 %.not28, label %.sink.split, label %29

29:                                               ; preds = %25
  %30 = call i32 @EVP_PKEY_derive(ptr noundef %17, ptr noundef %27, ptr noundef nonnull %2) #10
  %31 = icmp slt i32 %30, 1
  br i1 %31, label %.sink.split, label %32

32:                                               ; preds = %29
  %33 = getelementptr inbounds nuw i8, ptr %4, i64 56
  %34 = load ptr, ptr %33, align 8, !tbaa !291
  %35 = getelementptr inbounds nuw i8, ptr %4, i64 64
  %36 = load i64, ptr %35, align 8, !tbaa !295
  %37 = load i64, ptr %2, align 8, !tbaa !35
  %38 = getelementptr inbounds nuw i8, ptr %0, i64 35256
  %39 = load ptr, ptr %38, align 8, !tbaa !24
  %.not.i = icmp eq ptr %39, null
  br i1 %.not.i, label %45, label %40

40:                                               ; preds = %32
  %41 = call i32 @strcmp(ptr noundef nonnull dereferenceable(1) %39, ptr noundef nonnull dereferenceable(23) @.str.447) #11
  %42 = icmp eq i32 %41, 0
  br i1 %42, label %43, label %45

43:                                               ; preds = %40
  %44 = call i32 @test_mem_ne(ptr noundef nonnull @.str.29, i32 noundef 332, ptr noundef nonnull @.str.213, ptr noundef nonnull @.str.112, ptr noundef %34, i64 noundef %36, ptr noundef %27, i64 noundef %37) #10
  %.not15.i.not = icmp eq i32 %44, 0
  br i1 %.not15.i.not, label %memory_err_compare.exit, label %.sink.split

45:                                               ; preds = %32, %40
  %46 = call i32 @test_mem_eq(ptr noundef nonnull @.str.29, i32 noundef 334, ptr noundef nonnull @.str.213, ptr noundef nonnull @.str.112, ptr noundef %34, i64 noundef %36, ptr noundef %27, i64 noundef %37) #10
  %47 = icmp eq i32 %46, 0
  br i1 %47, label %.sink.split, label %memory_err_compare.exit

memory_err_compare.exit:                          ; preds = %43, %45
  %48 = call fastcc i32 @pkey_check_fips_approved(ptr noundef %17, ptr noundef nonnull %0)
  %.not30 = icmp eq i32 %48, 0
  br i1 %.not30, label %49, label %.sink.split

.sink.split:                                      ; preds = %memory_err_compare.exit, %45, %43, %29, %25, %19, %22, %15, %6
  %.str.447.sink = phi ptr [ @.str.444, %6 ], [ @.str.446, %15 ], [ @.str.446, %22 ], [ @.str.446, %19 ], [ @.str.446, %25 ], [ @.str.446, %29 ], [ @.str.447, %43 ], [ @.str.447, %45 ], [ null, %memory_err_compare.exit ]
  %.025.ph = phi ptr [ null, %6 ], [ %17, %15 ], [ %17, %22 ], [ %17, %19 ], [ %17, %25 ], [ %17, %29 ], [ %17, %43 ], [ %17, %45 ], [ %17, %memory_err_compare.exit ]
  %.024.ph = phi ptr [ null, %6 ], [ null, %15 ], [ null, %22 ], [ null, %19 ], [ %27, %25 ], [ %27, %29 ], [ %27, %43 ], [ %27, %45 ], [ %27, %memory_err_compare.exit ]
  store ptr %.str.447.sink, ptr %7, align 8, !tbaa !64
  br label %49

49:                                               ; preds = %.sink.split, %memory_err_compare.exit, %1
  %.025 = phi ptr [ null, %1 ], [ %17, %memory_err_compare.exit ], [ %.025.ph, %.sink.split ]
  %.024 = phi ptr [ null, %1 ], [ %27, %memory_err_compare.exit ], [ %.024.ph, %.sink.split ]
  %.0 = phi i32 [ 1, %1 ], [ 0, %memory_err_compare.exit ], [ 1, %.sink.split ]
  call void @CRYPTO_free(ptr noundef %.024, ptr noundef nonnull @.str.29, i32 noundef 2975) #10
  call void @EVP_PKEY_CTX_free(ptr noundef %.025) #10
  call void @llvm.lifetime.end.p0(i64 8, ptr nonnull %2) #10
  ret i32 %.0
}